target datalayout = "e-m:e-p270:32:32-p271:32:32-p272:64:64-i64:64-i128:128-f80:128-n8:16:32:64-S128"
target triple = "x86_64-pc-linux-gnu"

%struct.Aes = type { [60 x i32], i32, i32, [8 x i8], [4 x i32], [4 x i32], [2 x i32], i32, [4 x i8], %struct.Gcm, ptr, [8 x i8] }
%struct.Gcm = type { [16 x i8], [32 x [16 x i8]] }

; Function Attrs: inlinehint nounwind uwtable
define internal i32 @CheckAesGcmIvSize(i32 noundef %0) #4 {
  %2 = alloca i32, align 4
  store i32 %0, ptr %2, align 4, !tbaa !10
  %3 = load i32, ptr %2, align 4, !tbaa !10
  %4 = icmp eq i32 %3, 8
  br i1 %4, label %11, label %5

5:                                                ; preds = %1
  %6 = load i32, ptr %2, align 4, !tbaa !10
  %7 = icmp eq i32 %6, 12
  br i1 %7, label %11, label %8

8:                                                ; preds = %5
  %9 = load i32, ptr %2, align 4, !tbaa !10
  %10 = icmp eq i32 %9, 16
  br label %11

11:                                               ; preds = %8, %5, %1
  %12 = phi i1 [ true, %5 ], [ true, %1 ], [ %10, %8 ]
  %13 = zext i1 %12 to i32
  ret i32 %13
}

; Function Attrs: nounwind uwtable
define i32 @wc_AesGcmSetIV(ptr noundef %0, i32 noundef %1, ptr noundef %2, i32 noundef %3, ptr noundef %4) #0 {
  %6 = alloca ptr, align 8
  %7 = alloca i32, align 4
  %8 = alloca ptr, align 8
  %9 = alloca i32, align 4
  %10 = alloca ptr, align 8
  %11 = alloca i32, align 4
  %12 = alloca ptr, align 8
  store ptr %0, ptr %6, align 8, !tbaa !3
  store i32 %1, ptr %7, align 4, !tbaa !10
  store ptr %2, ptr %8, align 8, !tbaa !8
  store i32 %3, ptr %9, align 4, !tbaa !10
  store ptr %4, ptr %10, align 8, !tbaa !40
  call void @llvm.lifetime.start.p0(i64 4, ptr %11) #6
  store i32 0, ptr %11, align 4, !tbaa !10
  %13 = load ptr, ptr %6, align 8, !tbaa !3
  %14 = icmp eq ptr %13, null
  br i1 %14, label %34, label %15

15:                                               ; preds = %5
  %16 = load ptr, ptr %10, align 8, !tbaa !40
  %17 = icmp eq ptr %16, null
  br i1 %17, label %34, label %18

18:                                               ; preds = %15
  %19 = load i32, ptr %7, align 4, !tbaa !10
  %20 = call i32 @CheckAesGcmIvSize(i32 noundef %19)
  %21 = icmp ne i32 %20, 0
  br i1 %21, label %22, label %34

22:                                               ; preds = %18
  %23 = load ptr, ptr %8, align 8, !tbaa !8
  %24 = icmp eq ptr %23, null
  br i1 %24, label %25, label %28

25:                                               ; preds = %22
  %26 = load i32, ptr %9, align 4, !tbaa !10
  %27 = icmp ne i32 %26, 0
  br i1 %27, label %34, label %28

28:                                               ; preds = %25, %22
  %29 = load ptr, ptr %8, align 8, !tbaa !8
  %30 = icmp ne ptr %29, null
  br i1 %30, label %31, label %35

31:                                               ; preds = %28
  %32 = load i32, ptr %9, align 4, !tbaa !10
  %33 = icmp ne i32 %32, 4
  br i1 %33, label %34, label %35

34:                                               ; preds = %31, %25, %18, %15, %5
  store i32 -173, ptr %11, align 4, !tbaa !10
  br label %35

35:                                               ; preds = %34, %31, %28
  %36 = load i32, ptr %11, align 4, !tbaa !10
  %37 = icmp eq i32 %36, 0
  br i1 %37, label %38, label %59

38:                                               ; preds = %35
  call void @llvm.lifetime.start.p0(i64 8, ptr %12) #6
  %39 = load ptr, ptr %6, align 8, !tbaa !3
  %40 = getelementptr inbounds nuw %struct.Aes, ptr %39, i32 0, i32 4
  %41 = getelementptr inbounds [4 x i32], ptr %40, i64 0, i64 0
  store ptr %41, ptr %12, align 8, !tbaa !8
  %42 = load i32, ptr %9, align 4, !tbaa !10
  %43 = icmp ne i32 %42, 0
  br i1 %43, label %44, label %49

44:                                               ; preds = %38
  %45 = load ptr, ptr %12, align 8, !tbaa !8
  %46 = load ptr, ptr %8, align 8, !tbaa !8
  %47 = load i32, ptr %9, align 4, !tbaa !10
  %48 = zext i32 %47 to i64
  call void @llvm.memcpy.p0.p0.i64(ptr align 1 %45, ptr align 1 %46, i64 %48, i1 false)
  br label %49

49:                                               ; preds = %44, %38
  %50 = load ptr, ptr %10, align 8, !tbaa !40
  %51 = load ptr, ptr %12, align 8, !tbaa !8
  %52 = load i32, ptr %9, align 4, !tbaa !10
  %53 = zext i32 %52 to i64
  %54 = getelementptr inbounds nuw i8, ptr %51, i64 %53
  %55 = load i32, ptr %7, align 4, !tbaa !10
  %56 = load i32, ptr %9, align 4, !tbaa !10
  %57 = sub i32 %55, %56
  %58 = call i32 @wc_RNG_GenerateBlock(ptr noundef %50, ptr noundef %54, i32 noundef %57)
  store i32 %58, ptr %11, align 4, !tbaa !10
  call void @llvm.lifetime.end.p0(i64 8, ptr %12) #6
  br label %59

59:                                               ; preds = %49, %35
  %60 = load i32, ptr %11, align 4, !tbaa !10
  %61 = icmp eq i32 %60, 0
  br i1 %61, label %62, label %75

62:                                               ; preds = %59
  %63 = load ptr, ptr %6, align 8, !tbaa !3
  %64 = getelementptr inbounds nuw %struct.Aes, ptr %63, i32 0, i32 6
  %65 = getelementptr inbounds [2 x i32], ptr %64, i64 0, i64 0
  store i32 0, ptr %65, align 16, !tbaa !10
  %66 = load i32, ptr %7, align 4, !tbaa !10
  %67 = icmp eq i32 %66, 12
  %68 = select i1 %67, i32 0, i32 -1
  %69 = load ptr, ptr %6, align 8, !tbaa !3
  %70 = getelementptr inbounds nuw %struct.Aes, ptr %69, i32 0, i32 6
  %71 = getelementptr inbounds [2 x i32], ptr %70, i64 0, i64 1
  store i32 %68, ptr %71, align 4, !tbaa !10
  %72 = load i32, ptr %7, align 4, !tbaa !10
  %73 = load ptr, ptr %6, align 8, !tbaa !3
  %74 = getelementptr inbounds nuw %struct.Aes, ptr %73, i32 0, i32 7
  store i32 %72, ptr %74, align 8, !tbaa !39
  br label %75

75:                                               ; preds = %62, %59
  %76 = load i32, ptr %11, align 4, !tbaa !10
  call void @llvm.lifetime.end.p0(i64 4, ptr %11) #6
  ret i32 %76
}