; Function Attrs: nounwind uwtable
define i32 @wc_AesGcmSetIV(ptr noundef %0, i32 noundef %1, ptr noundef readonly captures(address_is_null) %2, i32 noundef %3, ptr noundef %4) local_unnamed_addr #7 {
  %6 = icmp eq ptr %0, null
  %7 = icmp eq ptr %4, null
  %or.cond = or i1 %6, %7
  br i1 %or.cond, label %.thread32, label %8

8:                                                ; preds = %5
  switch i32 %1, label %.thread32 [
    i32 16, label %9
    i32 12, label %9
    i32 8, label %9
  ]

9:                                                ; preds = %8, %8, %8
  %10 = icmp eq ptr %2, null
  %11 = icmp ne i32 %3, 0
  %or.cond3 = and i1 %10, %11
  br i1 %or.cond3, label %.thread32, label %12

12:                                               ; preds = %9
  %13 = icmp ne ptr %2, null
  %14 = icmp ne i32 %3, 4
  %or.cond5 = and i1 %13, %14
  br i1 %or.cond5, label %.thread32, label %15

15:                                               ; preds = %12
  %16 = getelementptr inbounds nuw i8, ptr %0, i64 256
  %.not30 = icmp eq i32 %3, 0
  br i1 %.not30, label %._crit_edge, label %17

17:                                               ; preds = %15
  %18 = zext i32 %3 to i64
  tail call void @llvm.memcpy.p0.p0.i64(ptr nonnull align 1 %16, ptr align 1 %2, i64 %18, i1 false)
  br label %._crit_edge

._crit_edge:                                      ; preds = %15, %17
  %.pre-phi = phi i64 [ %18, %17 ], [ 0, %15 ]
  %19 = getelementptr inbounds nuw i8, ptr %16, i64 %.pre-phi
  %20 = sub i32 %1, %3
  %21 = tail call i32 @wc_RNG_GenerateBlock(ptr noundef nonnull %4, ptr noundef nonnull %19, i32 noundef %20) #12
  %22 = icmp eq i32 %21, 0
  br i1 %22, label %23, label %.thread32

23:                                               ; preds = %._crit_edge
  %24 = getelementptr inbounds nuw i8, ptr %0, i64 288
  store i32 0, ptr %24, align 16, !tbaa !11
  %25 = icmp ne i32 %1, 12
  %26 = sext i1 %25 to i32
  %27 = getelementptr inbounds nuw i8, ptr %0, i64 292
  store i32 %26, ptr %27, align 4, !tbaa !11
  %28 = getelementptr inbounds nuw i8, ptr %0, i64 296
  store i32 %1, ptr %28, align 8, !tbaa !42
  br label %.thread32

.thread32:                                        ; preds = %8, %12, %9, %5, %23, %._crit_edge
  %.134 = phi i32 [ 0, %23 ], [ %21, %._crit_edge ], [ -173, %5 ], [ -173, %8 ], [ -173, %9 ], [ -173, %12 ]
  ret i32 %.134
}